Certificate:
    Data:
        Version: 3 (0x2)
        Serial Number: 19 (0x13)
    Signature Algorithm: sha256WithRSAEncryption
        Issuer: C=ES, ST=Zaragoza, L=Zaragoza, O=Signu, OU=Signu, CN=SignuCA/emailAddress=signu.app@gmail.com
        Validity
            Not Before: Oct  8 14:41:58 2018 GMT
            Not After : Oct  8 14:41:58 2019 GMT
        Subject: C=ES, ST=Zaragoza, O=Signu, OU=Signu, CN=SignuTest/emailAddress=testG0uXH@gmail.com
        Subject Public Key Info:
            Public Key Algorithm: rsaEncryption
                Public-Key: (4096 bit)
                Modulus:
                    00:a4:0d:0a:49:08:ef:0a:33:06:d9:11:da:cd:18:
                    f0:41:cb:86:d9:d5:19:09:51:6f:bb:60:08:ff:aa:
                    98:06:34:75:7a:11:2e:1a:ce:1c:b9:2f:c1:6a:58:
                    5b:10:ad:06:69:a0:fc:7d:bd:a7:4b:35:87:5f:0d:
                    16:9c:0e:0a:85:81:0b:de:78:10:e5:15:cd:f6:60:
                    42:f2:85:fc:68:22:3f:80:38:4a:42:01:06:1f:11:
                    38:5a:d0:33:98:3a:92:6d:3e:19:39:0e:10:ff:0f:
                    54:9e:2d:1f:47:83:9f:19:21:31:fa:3e:bf:b0:78:
                    0d:cc:5d:9c:40:2d:0a:ad:48:46:f0:f9:2d:c6:4f:
                    57:50:1d:d5:f6:4a:e5:15:ca:2a:15:de:b6:02:ab:
                    65:5f:ec:9d:b4:a5:d0:9b:fd:96:b6:bb:e3:f6:a5:
                    3c:22:8d:b9:18:f7:53:fe:f1:e1:01:04:2b:cf:ca:
                    ab:96:96:bb:51:66:fa:e7:12:83:85:db:00:3c:a4:
                    6a:8c:59:94:4b:17:6d:bf:4b:81:a1:39:c1:99:72:
                    3e:c2:84:d3:d8:f8:ff:b5:aa:24:f9:54:8d:33:7c:
                    21:99:6e:d7:1c:91:7c:0d:f1:43:48:af:b5:7f:08:
                    c5:84:78:7a:cf:06:a9:2d:3d:9c:be:28:ca:20:4a:
                    1b:7e:26:a7:a1:82:c2:f9:13:77:41:a5:c2:e6:89:
                    b9:81:27:9d:e6:ff:59:e3:6b:0e:2e:ca:11:7c:58:
                    0e:d0:90:0b:d6:47:60:7d:9b:df:54:88:fd:87:7c:
                    2b:b2:fa:a3:e0:ec:c7:e2:a0:6d:53:cb:ec:4a:1c:
                    07:0e:14:c7:b8:fb:98:b5:75:26:a1:7b:c4:de:f3:
                    d0:8b:5b:ef:d1:f8:97:14:fd:fc:4d:a0:31:18:31:
                    d1:6f:fd:4d:ff:44:8c:b9:a5:f6:d6:db:56:42:96:
                    a0:d9:fb:46:10:92:b8:41:fb:f0:69:58:d0:5b:4f:
                    ed:0d:c5:fa:06:56:a2:06:e8:14:1f:d9:4b:d2:9b:
                    cc:5d:3e:77:50:ad:c1:76:a1:8d:59:71:58:9b:c1:
                    42:bd:66:7c:60:33:a1:30:39:9f:93:d1:7a:89:1e:
                    8a:3d:63:85:ed:a4:ab:3c:9b:6a:6b:99:c6:58:ad:
                    b2:71:78:3a:d3:f2:61:5d:43:4f:3c:59:19:8d:b2:
                    32:8d:b7:c3:d9:b1:e1:44:74:b4:4c:a3:28:5e:44:
                    51:0b:f3:ae:b6:21:55:71:f0:72:23:44:86:10:fe:
                    26:59:4b:94:18:79:81:8e:dc:ee:35:99:1b:ea:4e:
                    65:63:3a:1a:8d:49:bc:76:13:fa:5d:04:bc:59:5e:
                    b5:0f:cf
                Exponent: 65537 (0x10001)
        X509v3 extensions:
            X509v3 Basic Constraints: 
                CA:FALSE
            Netscape Comment: 
                OpenSSL Generated Certificate
            X509v3 Subject Key Identifier: 
                DF:33:A1:4F:F4:C5:CC:57:4A:AF:86:E0:66:D2:D9:78:2F:ED:91:51
            X509v3 Authority Key Identifier: 
                keyid:D2:BA:ED:61:FA:3D:50:02:C6:CC:55:33:97:27:79:C9:C8:26:E4:4E

            X509v3 Extended Key Usage: critical
                Time Stamping
    Signature Algorithm: sha256WithRSAEncryption
         8b:c0:6d:08:81:65:cf:29:4c:fa:63:3a:3b:36:c7:49:d2:be:
         3e:15:b9:af:09:fa:bc:b1:0d:d6:93:9e:be:c4:4d:0f:88:c8:
         db:9d:ec:75:7b:45:8c:25:b2:08:b5:00:7e:59:a7:33:3f:5a:
         fa:fd:4d:23:40:49:60:80:bc:6d:34:59:20:00:a1:51:01:83:
         ad:a3:1c:98:d1:eb:a6:a0:bc:1d:24:c0:27:8c:90:c5:b5:4e:
         f6:34:69:f2:21:1a:6b:fc:b9:bf:96:ef:e5:f1:ff:f2:12:a5:
         e1:ec:91:de:e7:5a:c9:6a:6a:8e:28:b0:fc:34:1c:34:00:ac:
         2f:6b:0b:b3:6e:69:80:d8:96:8e:db:dc:2f:ff:75:70:a4:d5:
         91:ef:17:fd:96:db:6b:6e:7b:82:c2:40:f3:3a:10:d4:f0:b4:
         b1:6d:3d:46:bc:35:31:67:b6:c4:23:95:f7:b9:0a:c3:31:08:
         32:ea:03:11:68:bd:db:9c:85:83:a4:3a:63:b1:40:1a:c2:13:
         7a:6d:7e:7c:e6:b9:46:bc:27:9c:d8:e1:48:bc:71:e4:b6:98:
         7d:ef:93:e7:95:48:43:7a:d8:38:d2:d0:05:06:7a:61:80:96:
         bf:e9:e9:54:0f:f5:b2:93:94:ba:d3:21:48:72:cd:ac:4d:d8:
         d4:d5:58:23:ec:db:88:78:a6:f4:ca:15:93:f3:3c:13:c1:d1:
         97:bb:17:b1:0a:84:9d:a2:72:b7:6a:0d:b4:10:b4:31:61:83:
         d4:27:7a:7a:31:3e:f2:9c:42:27:7c:1d:9c:d3:23:88:43:1e:
         b4:2f:72:16:99:c9:80:3f:86:13:da:da:53:a2:cb:83:19:3c:
         94:d9:5f:b9:a6:dc:e8:91:ae:cf:b0:d4:8e:e5:95:39:b9:a5:
         df:51:ce:3d:93:9b:05:0a:3f:97:cd:11:c7:7c:a7:5f:d8:5d:
         7f:17:e4:e3:73:90:5b:ed:a2:bc:b9:a4:0a:a7:9b:fc:3f:1c:
         a0:78:a3:a3:47:91:0b:9d:35:94:a0:50:6a:79:b9:17:5e:34:
         83:d0:f0:da:35:7a:d1:d9:3f:ad:4d:37:2b:7d:0e:bd:2a:9b:
         a7:6c:5e:af:61:1e:aa:ec:fa:33:7e:33:20:d0:33:95:f9:95:
         30:c3:d2:25:c0:8a:d6:25:06:60:62:fa:57:0b:36:c5:7d:6a:
         59:19:2f:75:66:7e:cd:39:cf:85:37:7c:76:cd:23:0b:3f:4c:
         be:9f:9e:2f:39:cc:86:f0:81:a6:07:63:c9:8f:ba:b4:13:b9:
         98:f8:9b:8f:05:d1:67:2c:74:06:aa:15:02:d7:7c:91:7e:05:
         bb:b7:8e:4b:fc:56:3d:fa
-----BEGIN CERTIFICATE-----
MIIGEjCCA/qgAwIBAgIBEzANBgkqhkiG9w0BAQsFADCBiTELMAkGA1UEBhMCRVMx
ETAPBgNVBAgMCFphcmFnb3phMREwDwYDVQQHDAhaYXJhZ296YTEOMAwGA1UECgwF
U2lnbnUxDjAMBgNVBAsMBVNpZ251MRAwDgYDVQQDDAdTaWdudUNBMSIwIAYJKoZI
hvcNAQkBFhNzaWdudS5hcHBAZ21haWwuY29tMB4XDTE4MTAwODE0NDE1OFoXDTE5
MTAwODE0NDE1OFoweDELMAkGA1UEBhMCRVMxETAPBgNVBAgMCFphcmFnb3phMQ4w
DAYDVQQKDAVTaWdudTEOMAwGA1UECwwFU2lnbnUxEjAQBgNVBAMMCVNpZ251VGVz
dDEiMCAGCSqGSIb3DQEJARYTdGVzdEcwdVhIQGdtYWlsLmNvbTCCAiIwDQYJKoZI
hvcNAQEBBQADggIPADCCAgoCggIBAKQNCkkI7wozBtkR2s0Y8EHLhtnVGQlRb7tg
CP+qmAY0dXoRLhrOHLkvwWpYWxCtBmmg/H29p0s1h18NFpwOCoWBC954EOUVzfZg
QvKF/GgiP4A4SkIBBh8ROFrQM5g6km0+GTkOEP8PVJ4tH0eDnxkhMfo+v7B4Dcxd
nEAtCq1IRvD5LcZPV1Ad1fZK5RXKKhXetgKrZV/snbSl0Jv9lra74/alPCKNuRj3
U/7x4QEEK8/Kq5aWu1Fm+ucSg4XbADykaoxZlEsXbb9LgaE5wZlyPsKE09j4/7Wq
JPlUjTN8IZlu1xyRfA3xQ0ivtX8IxYR4es8GqS09nL4oyiBKG34mp6GCwvkTd0Gl
wuaJuYEnneb/WeNrDi7KEXxYDtCQC9ZHYH2b31SI/Yd8K7L6o+Dsx+KgbVPL7Eoc
Bw4Ux7j7mLV1JqF7xN7z0Itb79H4lxT9/E2gMRgx0W/9Tf9EjLml9tbbVkKWoNn7
RhCSuEH78GlY0FtP7Q3F+gZWogboFB/ZS9KbzF0+d1CtwXahjVlxWJvBQr1mfGAz
oTA5n5PReokeij1jhe2kqzybamuZxlitsnF4OtPyYV1DTzxZGY2yMo23w9mx4UR0
tEyjKF5EUQvzrrYhVXHwciNEhhD+JllLlBh5gY7c7jWZG+pOZWM6Go1JvHYT+l0E
vFletQ/PAgMBAAGjgZQwgZEwCQYDVR0TBAIwADAsBglghkgBhvhCAQ0EHxYdT3Bl
blNTTCBHZW5lcmF0ZWQgQ2VydGlmaWNhdGUwHQYDVR0OBBYEFN8zoU/0xcxXSq+G
4GbS2Xgv7ZFRMB8GA1UdIwQYMBaAFNK67WH6PVACxsxVM5cnecnIJuROMBYGA1Ud
JQEB/wQMMAoGCCsGAQUFBwMIMA0GCSqGSIb3DQEBCwUAA4ICAQCLwG0IgWXPKUz6
Yzo7NsdJ0r4+FbmvCfq8sQ3Wk56+xE0PiMjbnex1e0WMJbIItQB+WaczP1r6/U0j
QElggLxtNFkgAKFRAYOtoxyY0eumoLwdJMAnjJDFtU72NGnyIRpr/Lm/lu/l8f/y
EqXh7JHe51rJamqOKLD8NBw0AKwvawuzbmmA2JaO29wv/3VwpNWR7xf9lttrbnuC
wkDzOhDU8LSxbT1GvDUxZ7bEI5X3uQrDMQgy6gMRaL3bnIWDpDpjsUAawhN6bX58
5rlGvCec2OFIvHHktph975PnlUhDetg40tAFBnphgJa/6elUD/Wyk5S60yFIcs2s
TdjU1Vgj7NuIeKb0yhWT8zwTwdGXuxexCoSdonK3ag20ELQxYYPUJ3p6MT7ynEIn
fB2c0yOIQx60L3IWmcmAP4YT2tpTosuDGTyU2V+5ptzoka7PsNSO5ZU5uaXfUc49
k5sFCj+XzRHHfKdf2F1/F+Tjc5Bb7aK8uaQKp5v8PxygeKOjR5ELnTWUoFBqebkX
XjSD0PDaNXrR2T+tTTcrfQ69KpunbF6vYR6q7PozfjMg0DOV+ZUww9IlwIrWJQZg
YvpXCzbFfWpZGS91Zn7NOc+FN3x2zSMLP0y+n54vOcyG8IGmB2PJj7q0E7mY+JuP
BdFnLHQGqhUC13yRfgW7t45L/FY9+g==
-----END CERTIFICATE-----
