Certificate:
    Data:
        Version: 3 (0x2)
        Serial Number: 7 (0x7)
    Signature Algorithm: sha256WithRSAEncryption
        Issuer: C=ES, ST=Zaragoza, L=Zaragoza, O=Signu, OU=Signu, CN=SignuCA/emailAddress=signu.app@gmail.com
        Validity
            Not Before: Dec 26 12:30:51 2018 GMT
            Not After : Dec 26 12:30:51 2019 GMT
        Subject: C=ES, ST=Zaragoza, O=Signu, OU=Signu, CN=SignuTest/emailAddress=testC3Ard@gmail.com
        Subject Public Key Info:
            Public Key Algorithm: rsaEncryption
                Public-Key: (4096 bit)
                Modulus:
                    00:dd:54:3d:66:02:37:c1:52:49:3a:76:ce:0a:bb:
                    0e:d2:9e:5c:a3:48:de:64:62:d0:b2:31:6b:13:e2:
                    6a:0e:a5:8d:7c:17:d4:19:64:e0:d2:17:02:ba:1b:
                    1b:0f:65:af:7a:78:4d:d8:18:10:d8:b2:74:12:e4:
                    06:80:65:2d:ff:b7:e8:f8:4e:d1:86:b5:04:7a:84:
                    db:83:f9:f6:22:4f:4c:44:2c:a3:07:c1:05:e5:99:
                    7d:92:15:ee:29:27:3a:cc:fd:c0:33:50:1f:1b:44:
                    ff:2c:30:8f:0e:08:c2:fa:47:3a:f9:22:72:f1:84:
                    5f:3c:26:34:2b:2c:ed:b2:d8:ea:b3:b3:50:8f:91:
                    23:b4:22:41:f3:17:35:7c:63:d1:eb:9c:1d:f5:52:
                    9f:fe:6c:60:b3:90:ff:84:e8:71:4b:96:eb:78:00:
                    f3:cc:a1:b3:9e:a8:6c:41:ee:76:e8:63:88:23:81:
                    47:ad:07:9d:09:67:41:3d:30:3a:3b:73:3a:d1:a4:
                    92:0e:2b:c4:b9:3f:d1:3e:fb:5d:15:bc:1e:8b:7d:
                    24:f4:b4:35:d0:61:3f:6c:be:34:06:26:40:f0:c1:
                    4d:63:d8:7f:e0:b7:12:81:27:f7:f4:8a:c7:15:20:
                    e4:29:06:31:35:02:df:ac:47:c9:ce:87:5c:05:7a:
                    ed:6e:18:fd:c3:45:e4:5f:dd:68:45:37:6a:16:71:
                    5c:64:c0:ee:3e:24:e5:00:28:c7:c4:8c:35:c8:76:
                    a9:c0:a4:9d:56:c7:a8:98:66:20:45:f3:c4:0a:fe:
                    7c:57:c0:26:c2:5c:bc:0d:bc:86:cd:e7:f4:e9:2d:
                    09:26:bf:6e:4c:94:d5:79:10:c0:6b:be:af:cb:52:
                    33:3e:b7:0f:14:65:9f:bb:cb:c2:48:c6:aa:d6:17:
                    f4:bb:47:4f:72:f8:47:da:c1:8c:9e:2d:f9:c6:24:
                    c5:e9:81:17:be:aa:9e:fa:b1:15:cd:65:8b:40:48:
                    b7:f8:bf:c8:59:02:b7:7a:45:2e:4d:c5:58:ca:ee:
                    59:cd:7d:96:6e:3d:2c:b9:e8:25:67:a4:aa:97:df:
                    91:06:c8:d7:c8:ba:1d:24:ec:83:dc:0a:bc:54:a2:
                    f5:07:11:4f:57:bb:3e:84:04:d0:dc:3a:50:2a:1b:
                    a3:df:a5:e8:54:46:98:d5:f0:57:8d:e1:74:cb:d6:
                    6f:81:8a:3c:85:0d:18:6b:bf:a7:02:a9:a8:95:68:
                    5b:e3:9d:61:1d:ab:37:14:e4:4e:b4:cb:a6:29:96:
                    ee:33:4d:60:10:52:4d:07:13:49:ab:a4:e8:df:78:
                    21:39:f8:b8:5f:7d:b0:39:bd:16:1b:8c:94:a5:96:
                    d8:9e:a9
                Exponent: 65537 (0x10001)
        X509v3 extensions:
            X509v3 Basic Constraints: 
                CA:FALSE
            Netscape Comment: 
                OpenSSL Generated Certificate
            X509v3 Subject Key Identifier: 
                BD:18:FA:92:6E:28:10:F7:30:4A:3B:08:D5:16:C4:2D:18:EC:F8:A4
            X509v3 Authority Key Identifier: 
                keyid:D2:BA:ED:61:FA:3D:50:02:C6:CC:55:33:97:27:79:C9:C8:26:E4:4E

            X509v3 Extended Key Usage: critical
                Time Stamping
    Signature Algorithm: sha256WithRSAEncryption
         49:9d:0b:37:69:ff:21:7c:32:0b:54:48:9c:5c:ec:e1:24:3e:
         0d:2b:c0:64:e3:f4:d6:ff:1b:84:00:c8:5c:10:aa:33:d6:87:
         27:2f:f3:d1:65:85:1c:47:59:f1:c9:f7:f5:00:a3:32:29:2f:
         2e:69:3c:85:b8:82:3b:34:c0:7f:8a:56:07:be:d7:61:5f:00:
         65:fe:6b:ca:4e:d0:fa:ac:7f:42:86:86:cf:0d:21:8c:16:02:
         a9:ea:b1:7d:cb:da:39:21:fc:20:68:7f:aa:55:3c:54:26:9f:
         c0:a5:f4:e0:0e:07:61:c7:10:41:2c:17:bf:34:1d:48:a9:a9:
         f0:0a:30:fa:87:32:a6:ed:fa:0f:20:1b:52:e7:92:27:77:a2:
         6a:8b:b8:c8:4d:a6:61:db:4f:17:71:e7:63:80:c7:e9:2f:27:
         c7:1b:42:b7:58:e2:d4:c7:53:30:35:1a:54:e7:73:f4:d3:66:
         8c:1f:3d:b1:e6:cc:5d:05:26:f7:98:c1:22:ff:a9:20:44:30:
         f4:0c:4c:e1:ea:ad:71:e3:e4:f5:94:84:6c:67:4e:13:18:fd:
         b5:3d:65:97:46:60:0b:9f:83:e1:46:06:a6:d5:e8:db:b6:bd:
         5a:2c:27:70:25:f1:3f:14:2d:57:27:d3:e1:11:e9:b0:6c:86:
         c0:d1:dd:a1:c8:e8:17:b3:a9:71:d8:14:bb:80:e0:0e:01:9d:
         f9:27:ff:9b:7f:8c:ae:45:fe:7e:eb:0b:61:fe:de:a9:78:80:
         52:ab:ae:3b:7b:8e:0d:66:e3:0b:f3:2e:23:b3:cb:a3:14:33:
         89:15:2f:f5:59:02:92:25:bc:c5:78:a0:ea:9d:f3:f8:9f:9b:
         3b:d4:52:8a:8f:6a:bd:b8:6d:9c:8f:73:46:c7:d1:7e:f3:3b:
         fc:a6:92:0b:1e:cf:0c:88:54:b5:16:d8:13:90:e3:39:63:2b:
         9c:ff:30:09:73:cf:c3:79:74:2c:41:b3:c1:1b:0b:7d:47:09:
         62:25:d2:14:da:44:83:9d:2d:b2:44:e1:d9:7b:6d:a2:5b:f0:
         d6:56:d3:02:ae:dd:58:79:bc:03:4d:0a:46:06:d7:f1:76:04:
         20:79:9b:50:d7:f7:da:20:dc:36:37:67:08:02:e9:fb:97:64:
         95:77:60:29:0c:df:2e:4a:57:17:52:96:ff:84:4b:3c:e1:f4:
         3d:1a:32:30:67:b0:3e:5b:69:ce:42:29:3f:10:66:c2:61:00:
         8a:d1:0d:13:5f:3f:3d:de:e6:c5:4f:d0:9f:78:47:b3:e0:99:
         93:57:ee:46:dd:7e:08:19:be:b2:cd:77:43:0e:07:be:dd:1c:
         f2:c1:29:57:fd:4c:a4:7a
-----BEGIN CERTIFICATE-----
MIIGEjCCA/qgAwIBAgIBBzANBgkqhkiG9w0BAQsFADCBiTELMAkGA1UEBhMCRVMx
ETAPBgNVBAgMCFphcmFnb3phMREwDwYDVQQHDAhaYXJhZ296YTEOMAwGA1UECgwF
U2lnbnUxDjAMBgNVBAsMBVNpZ251MRAwDgYDVQQDDAdTaWdudUNBMSIwIAYJKoZI
hvcNAQkBFhNzaWdudS5hcHBAZ21haWwuY29tMB4XDTE4MTIyNjEyMzA1MVoXDTE5
MTIyNjEyMzA1MVoweDELMAkGA1UEBhMCRVMxETAPBgNVBAgMCFphcmFnb3phMQ4w
DAYDVQQKDAVTaWdudTEOMAwGA1UECwwFU2lnbnUxEjAQBgNVBAMMCVNpZ251VGVz
dDEiMCAGCSqGSIb3DQEJARYTdGVzdEMzQXJkQGdtYWlsLmNvbTCCAiIwDQYJKoZI
hvcNAQEBBQADggIPADCCAgoCggIBAN1UPWYCN8FSSTp2zgq7DtKeXKNI3mRi0LIx
axPiag6ljXwX1Blk4NIXArobGw9lr3p4TdgYENiydBLkBoBlLf+36PhO0Ya1BHqE
24P59iJPTEQsowfBBeWZfZIV7iknOsz9wDNQHxtE/ywwjw4IwvpHOvkicvGEXzwm
NCss7bLY6rOzUI+RI7QiQfMXNXxj0eucHfVSn/5sYLOQ/4TocUuW63gA88yhs56o
bEHuduhjiCOBR60HnQlnQT0wOjtzOtGkkg4rxLk/0T77XRW8Hot9JPS0NdBhP2y+
NAYmQPDBTWPYf+C3EoEn9/SKxxUg5CkGMTUC36xHyc6HXAV67W4Y/cNF5F/daEU3
ahZxXGTA7j4k5QAox8SMNch2qcCknVbHqJhmIEXzxAr+fFfAJsJcvA28hs3n9Okt
CSa/bkyU1XkQwGu+r8tSMz63DxRln7vLwkjGqtYX9LtHT3L4R9rBjJ4t+cYkxemB
F76qnvqxFc1li0BIt/i/yFkCt3pFLk3FWMruWc19lm49LLnoJWekqpffkQbI18i6
HSTsg9wKvFSi9QcRT1e7PoQE0Nw6UCobo9+l6FRGmNXwV43hdMvWb4GKPIUNGGu/
pwKpqJVoW+OdYR2rNxTkTrTLpimW7jNNYBBSTQcTSauk6N94ITn4uF99sDm9FhuM
lKWW2J6pAgMBAAGjgZQwgZEwCQYDVR0TBAIwADAsBglghkgBhvhCAQ0EHxYdT3Bl
blNTTCBHZW5lcmF0ZWQgQ2VydGlmaWNhdGUwHQYDVR0OBBYEFL0Y+pJuKBD3MEo7
CNUWxC0Y7PikMB8GA1UdIwQYMBaAFNK67WH6PVACxsxVM5cnecnIJuROMBYGA1Ud
JQEB/wQMMAoGCCsGAQUFBwMIMA0GCSqGSIb3DQEBCwUAA4ICAQBJnQs3af8hfDIL
VEicXOzhJD4NK8Bk4/TW/xuEAMhcEKoz1ocnL/PRZYUcR1nxyff1AKMyKS8uaTyF
uII7NMB/ilYHvtdhXwBl/mvKTtD6rH9ChobPDSGMFgKp6rF9y9o5IfwgaH+qVTxU
Jp/ApfTgDgdhxxBBLBe/NB1IqanwCjD6hzKm7foPIBtS55Ind6Jqi7jITaZh208X
cedjgMfpLyfHG0K3WOLUx1MwNRpU53P002aMHz2x5sxdBSb3mMEi/6kgRDD0DEzh
6q1x4+T1lIRsZ04TGP21PWWXRmALn4PhRgam1ejbtr1aLCdwJfE/FC1XJ9PhEemw
bIbA0d2hyOgXs6lx2BS7gOAOAZ35J/+bf4yuRf5+6wth/t6peIBSq647e44NZuML
8y4js8ujFDOJFS/1WQKSJbzFeKDqnfP4n5s71FKKj2q9uG2cj3NGx9F+8zv8ppIL
Hs8MiFS1FtgTkOM5Yyuc/zAJc8/DeXQsQbPBGwt9RwliJdIU2kSDnS2yROHZe22i
W/DWVtMCrt1YebwDTQpGBtfxdgQgeZtQ1/faINw2N2cIAun7l2SVd2ApDN8uSlcX
Upb/hEs84fQ9GjIwZ7A+W2nOQik/EGbCYQCK0Q0TXz893ubFT9CfeEez4JmTV+5G
3X4IGb6yzXdDDge+3RzywSlX/Uykeg==
-----END CERTIFICATE-----
