Certificate:
    Data:
        Version: 3 (0x2)
        Serial Number: 13 (0xd)
    Signature Algorithm: sha256WithRSAEncryption
        Issuer: C=ES, ST=Zaragoza, L=Zaragoza, O=Signu, OU=Signu, CN=SignuCA/emailAddress=signu.app@gmail.com
        Validity
            Not Before: Oct  8 12:14:35 2018 GMT
            Not After : Oct  8 12:14:35 2019 GMT
        Subject: C=ES, ST=Zaragoza, O=Signu, OU=Signu, CN=SignuTest/emailAddress=testWuD7k@gmail.com
        Subject Public Key Info:
            Public Key Algorithm: rsaEncryption
                Public-Key: (4096 bit)
                Modulus:
                    00:c0:5c:87:be:56:8f:dd:4f:a7:fb:50:4a:e2:71:
                    9a:95:aa:94:e5:19:f8:b7:5c:ed:4a:ce:72:b0:90:
                    c1:8d:a9:dd:5e:99:f1:43:9f:b9:4b:a5:e9:49:66:
                    cd:77:87:f7:b1:ff:73:c5:c3:d2:bc:6c:bb:d9:92:
                    3e:07:ad:d1:6f:ff:23:24:96:e5:4a:85:3b:15:0c:
                    ca:34:93:7a:e2:76:18:0e:f8:d7:e7:d9:74:2c:fa:
                    bb:8d:6f:e6:45:64:a0:de:23:31:a6:7a:c3:73:9d:
                    c1:9b:bd:dc:f6:cd:24:d1:06:62:42:ad:17:f6:3a:
                    6f:5f:4d:fa:a3:ae:a3:84:36:71:f4:c9:9e:4d:3b:
                    f0:bf:45:9c:93:bc:00:02:8d:07:17:7e:e2:30:3b:
                    e1:19:47:dd:02:a9:e3:e3:f0:f6:95:81:de:06:d7:
                    29:81:75:64:b1:97:53:47:89:7b:01:35:b4:0a:3f:
                    6a:59:5f:8f:81:fc:17:d9:0a:e7:69:51:e6:2a:8f:
                    50:ac:69:04:10:ee:36:13:3b:cf:8c:0f:fb:71:6a:
                    ba:17:1a:55:58:30:b6:e0:86:0d:01:57:be:6f:84:
                    f6:e9:6a:cb:91:d4:d2:6e:5d:d7:57:74:ff:aa:a1:
                    d5:17:08:4d:1c:df:d5:27:e3:5f:06:50:80:37:33:
                    4f:16:fd:32:17:e7:23:4c:0c:d1:36:e9:44:c1:0e:
                    06:14:53:43:29:93:7a:d0:c3:6d:10:ff:11:8a:d1:
                    33:8d:e9:95:cf:e0:3c:f7:24:89:20:35:80:91:8e:
                    fc:79:00:37:69:ca:46:36:42:d8:85:7c:7f:c6:1d:
                    54:8b:1d:ce:03:dc:5b:a2:b4:c5:46:5a:13:e1:98:
                    23:44:57:03:d9:9c:df:37:fe:db:fd:d1:2e:5f:bb:
                    c0:fe:51:b8:bb:e3:6b:ac:37:d1:90:31:5a:47:db:
                    79:77:21:4f:79:39:b2:81:57:c7:8b:f4:67:c2:21:
                    d6:a3:e0:fd:d1:6a:8a:65:7a:93:a0:10:f1:69:2f:
                    2f:38:1d:e6:2f:c5:df:91:0f:ed:1a:c0:3f:fa:e0:
                    86:8c:d0:f9:4b:4b:9e:8d:40:a9:9d:82:10:db:5b:
                    fb:f1:a5:20:93:26:2e:be:85:77:8e:65:60:e2:2f:
                    71:57:ff:a7:40:e8:7d:b2:bb:c4:af:03:b2:d6:07:
                    f4:62:3c:a3:c9:46:e4:7c:2c:cb:6e:73:aa:b1:81:
                    83:ab:15:22:96:d0:62:e7:06:b4:44:dd:62:ce:cd:
                    d5:30:3b:31:30:48:15:11:6e:4e:fe:fd:cb:a8:1b:
                    3d:4c:43:40:2b:25:b6:8e:15:14:73:d9:41:9b:ed:
                    cf:a7:6f
                Exponent: 65537 (0x10001)
        X509v3 extensions:
            X509v3 Basic Constraints: 
                CA:FALSE
            Netscape Comment: 
                OpenSSL Generated Certificate
            X509v3 Subject Key Identifier: 
                C4:8C:F1:5C:9F:4D:3A:3B:4A:A6:36:D4:B5:02:97:D7:BD:7C:5B:36
            X509v3 Authority Key Identifier: 
                keyid:D2:BA:ED:61:FA:3D:50:02:C6:CC:55:33:97:27:79:C9:C8:26:E4:4E

            X509v3 Extended Key Usage: critical
                Time Stamping
    Signature Algorithm: sha256WithRSAEncryption
         47:79:eb:a5:ca:c5:6a:73:ce:59:6a:7b:46:fc:4b:3f:8f:23:
         db:71:ee:07:9a:97:9c:77:d5:77:35:c0:e3:95:7c:b0:ea:72:
         32:b1:09:53:7a:f1:c8:c1:c7:f9:cd:6e:18:f2:d8:6a:a2:37:
         be:ec:cb:45:31:6f:82:85:21:02:91:d3:7f:bb:6d:17:b7:92:
         99:3c:51:16:f5:54:08:ef:29:ea:0f:fd:06:5f:78:58:28:2e:
         52:75:f0:98:d3:24:b3:25:bf:57:a7:62:3d:9f:80:2a:63:e9:
         68:01:cd:fb:7e:4c:78:de:ac:31:2d:bb:b4:8a:e9:57:a9:b1:
         43:34:39:52:a3:ce:31:90:b4:86:90:92:6f:e3:a0:31:91:0a:
         7d:1e:57:a7:47:93:06:6e:13:dd:47:70:ca:ba:92:71:70:ca:
         00:e3:0a:44:99:94:d5:22:a7:97:8f:f2:89:ed:14:91:6f:70:
         50:a8:3d:6c:9b:a1:1f:38:57:b8:38:30:be:f1:f6:d0:ec:9e:
         d7:7f:85:84:b5:7e:2f:26:3c:7d:43:c2:56:20:bf:cf:e6:a6:
         49:00:aa:86:ee:f0:c5:cb:59:35:3c:31:d1:9b:ad:8e:f1:22:
         77:6c:c1:df:18:85:78:e4:14:b8:3c:d7:c4:e9:5e:31:71:d3:
         3e:43:73:fc:71:98:28:30:9a:06:6b:80:87:05:ea:a1:de:c3:
         6c:86:69:fe:bf:38:7e:3b:98:70:42:b2:5b:9c:37:60:62:a9:
         12:d0:0b:b5:cb:46:35:ff:25:69:7d:3f:7b:3b:56:d3:76:d7:
         ab:46:7c:d7:fd:9d:9b:2d:88:fe:d9:9f:84:c6:74:e2:f7:9d:
         55:9b:bc:a9:fa:f8:9d:50:23:b3:e4:d2:0d:41:22:bb:f3:3b:
         5d:2d:bf:d4:8c:36:4c:97:68:54:a0:20:88:57:a3:80:9a:3a:
         d3:52:6a:c5:b8:46:f7:bb:a1:c2:bd:a6:2d:2e:c8:a6:24:62:
         bd:08:48:fa:67:1a:78:22:5b:ed:27:63:00:fe:a9:76:a4:5d:
         89:27:48:4b:98:32:0a:60:4d:dc:6d:8b:1c:d6:15:0a:6a:00:
         cd:ad:a9:ba:50:c7:0c:01:e7:1f:37:72:89:43:8b:b3:f6:dc:
         93:c2:c7:c0:6c:03:1f:1b:47:8e:51:fc:e7:f8:c3:43:ad:31:
         6f:3f:d7:ec:6c:1a:42:d0:3d:35:de:fe:ed:e6:a4:da:0b:32:
         e7:8d:17:cf:2d:7d:8f:d7:e6:c5:75:21:0a:2c:c5:c3:e7:57:
         15:88:30:a7:54:94:29:c5:6c:51:b3:af:98:3f:bb:94:41:f8:
         80:d5:db:09:78:e5:30:78
-----BEGIN CERTIFICATE-----
MIIGEjCCA/qgAwIBAgIBDTANBgkqhkiG9w0BAQsFADCBiTELMAkGA1UEBhMCRVMx
ETAPBgNVBAgMCFphcmFnb3phMREwDwYDVQQHDAhaYXJhZ296YTEOMAwGA1UECgwF
U2lnbnUxDjAMBgNVBAsMBVNpZ251MRAwDgYDVQQDDAdTaWdudUNBMSIwIAYJKoZI
hvcNAQkBFhNzaWdudS5hcHBAZ21haWwuY29tMB4XDTE4MTAwODEyMTQzNVoXDTE5
MTAwODEyMTQzNVoweDELMAkGA1UEBhMCRVMxETAPBgNVBAgMCFphcmFnb3phMQ4w
DAYDVQQKDAVTaWdudTEOMAwGA1UECwwFU2lnbnUxEjAQBgNVBAMMCVNpZ251VGVz
dDEiMCAGCSqGSIb3DQEJARYTdGVzdFd1RDdrQGdtYWlsLmNvbTCCAiIwDQYJKoZI
hvcNAQEBBQADggIPADCCAgoCggIBAMBch75Wj91Pp/tQSuJxmpWqlOUZ+Ldc7UrO
crCQwY2p3V6Z8UOfuUul6UlmzXeH97H/c8XD0rxsu9mSPget0W//IySW5UqFOxUM
yjSTeuJ2GA741+fZdCz6u41v5kVkoN4jMaZ6w3OdwZu93PbNJNEGYkKtF/Y6b19N
+qOuo4Q2cfTJnk078L9FnJO8AAKNBxd+4jA74RlH3QKp4+Pw9pWB3gbXKYF1ZLGX
U0eJewE1tAo/allfj4H8F9kK52lR5iqPUKxpBBDuNhM7z4wP+3FquhcaVVgwtuCG
DQFXvm+E9ulqy5HU0m5d11d0/6qh1RcITRzf1SfjXwZQgDczTxb9MhfnI0wM0Tbp
RMEOBhRTQymTetDDbRD/EYrRM43plc/gPPckiSA1gJGO/HkAN2nKRjZC2IV8f8Yd
VIsdzgPcW6K0xUZaE+GYI0RXA9mc3zf+2/3RLl+7wP5RuLvja6w30ZAxWkfbeXch
T3k5soFXx4v0Z8Ih1qPg/dFqimV6k6AQ8WkvLzgd5i/F35EP7RrAP/rghozQ+UtL
no1AqZ2CENtb+/GlIJMmLr6Fd45lYOIvcVf/p0DofbK7xK8DstYH9GI8o8lG5Hws
y25zqrGBg6sVIpbQYucGtETdYs7N1TA7MTBIFRFuTv79y6gbPUxDQCslto4VFHPZ
QZvtz6dvAgMBAAGjgZQwgZEwCQYDVR0TBAIwADAsBglghkgBhvhCAQ0EHxYdT3Bl
blNTTCBHZW5lcmF0ZWQgQ2VydGlmaWNhdGUwHQYDVR0OBBYEFMSM8VyfTTo7SqY2
1LUCl9e9fFs2MB8GA1UdIwQYMBaAFNK67WH6PVACxsxVM5cnecnIJuROMBYGA1Ud
JQEB/wQMMAoGCCsGAQUFBwMIMA0GCSqGSIb3DQEBCwUAA4ICAQBHeeulysVqc85Z
antG/Es/jyPbce4Hmpecd9V3NcDjlXyw6nIysQlTevHIwcf5zW4Y8thqoje+7MtF
MW+ChSECkdN/u20Xt5KZPFEW9VQI7ynqD/0GX3hYKC5SdfCY0ySzJb9Xp2I9n4Aq
Y+loAc37fkx43qwxLbu0iulXqbFDNDlSo84xkLSGkJJv46AxkQp9HlenR5MGbhPd
R3DKupJxcMoA4wpEmZTVIqeXj/KJ7RSRb3BQqD1sm6EfOFe4ODC+8fbQ7J7Xf4WE
tX4vJjx9Q8JWIL/P5qZJAKqG7vDFy1k1PDHRm62O8SJ3bMHfGIV45BS4PNfE6V4x
cdM+Q3P8cZgoMJoGa4CHBeqh3sNshmn+vzh+O5hwQrJbnDdgYqkS0Au1y0Y1/yVp
fT97O1bTdterRnzX/Z2bLYj+2Z+ExnTi951Vm7yp+vidUCOz5NINQSK78ztdLb/U
jDZMl2hUoCCIV6OAmjrTUmrFuEb3u6HCvaYtLsimJGK9CEj6Zxp4IlvtJ2MA/ql2
pF2JJ0hLmDIKYE3cbYsc1hUKagDNram6UMcMAecfN3KJQ4uz9tyTwsfAbAMfG0eO
Ufzn+MNDrTFvP9fsbBpC0D013v7t5qTaCzLnjRfPLX2P1+bFdSEKLMXD51cViDCn
VJQpxWxRs6+YP7uUQfiA1dsJeOUweA==
-----END CERTIFICATE-----
