Certificate:
    Data:
        Version: 3 (0x2)
        Serial Number: 41 (0x29)
    Signature Algorithm: sha256WithRSAEncryption
        Issuer: C=ES, ST=Zaragoza, L=Zaragoza, O=Signu, OU=Signu, CN=SignuCA/emailAddress=signu.app@gmail.com
        Validity
            Not Before: Dec 10 07:41:20 2018 GMT
            Not After : Dec 10 07:41:20 2019 GMT
        Subject: C=ES, ST=Zaragoza, O=Signu, OU=Signu, CN=SignuTest/emailAddress=test0rpEC@gmail.com
        Subject Public Key Info:
            Public Key Algorithm: rsaEncryption
                Public-Key: (4096 bit)
                Modulus:
                    00:cc:a9:48:8e:0b:c4:90:f0:de:a1:fb:0a:af:46:
                    84:2d:e2:c6:0b:52:ae:b4:17:33:2d:17:00:20:ba:
                    95:59:c6:ac:57:bb:22:9c:50:b0:2b:34:5b:b6:1e:
                    10:ad:16:2c:8a:b5:61:91:d5:3e:84:05:2a:fb:8a:
                    3e:05:b3:9b:74:2c:e0:7d:63:a0:fb:76:1c:9b:6b:
                    56:7e:8b:86:40:c5:2b:84:9e:cc:39:73:af:9b:cc:
                    98:7c:ce:43:60:37:ab:e2:71:21:03:88:53:54:47:
                    3f:d1:70:7e:93:bc:be:e3:bf:e9:b2:e1:3d:7a:94:
                    07:c2:07:cf:f6:ad:1f:e7:6a:36:ef:b0:c9:22:fb:
                    03:1f:17:4e:38:aa:44:28:6f:50:7e:f8:7f:02:09:
                    0d:5f:57:aa:a6:68:49:1a:7d:f9:9a:a4:88:fb:48:
                    ca:3f:89:6f:bb:6a:99:8b:d6:2d:0e:90:a8:7f:2d:
                    cb:45:6a:1a:88:71:a0:00:a2:bb:1c:98:0e:06:c7:
                    29:0b:28:18:64:df:9d:4b:4b:8e:2c:e3:20:d8:12:
                    74:ec:55:6c:fe:32:33:0b:ab:a0:a0:41:3a:2a:a9:
                    78:75:be:cd:17:c7:bd:f9:a6:e2:3d:af:2b:1d:fc:
                    8a:e9:16:82:ad:9b:8c:64:4c:ed:0c:7d:91:c1:5a:
                    1e:a7:b8:68:35:a2:14:b4:a0:1f:92:00:37:26:53:
                    af:10:75:b2:72:9c:e2:84:52:ad:55:da:4a:b2:a0:
                    77:a0:2b:a8:b9:18:95:a1:a6:9e:f3:10:57:0f:40:
                    96:f0:91:c3:0d:9d:28:11:c0:a4:90:c7:ab:89:80:
                    d4:98:38:e3:28:5e:54:85:70:0b:79:e0:21:9a:6e:
                    d6:b8:1e:dc:9c:3e:7e:0e:10:ff:5d:fa:05:f7:56:
                    0f:51:7d:16:ab:92:62:6a:e5:10:9e:19:8b:81:40:
                    1a:07:ac:a2:c7:12:32:c3:32:e6:96:f9:71:d2:1e:
                    ae:b5:99:76:ff:42:85:87:4a:6d:2a:cc:60:d1:b3:
                    85:98:61:38:4c:42:5f:ef:2d:03:49:36:db:dc:0e:
                    f9:9f:8a:0e:98:83:10:f6:6c:ac:25:2d:dc:f6:16:
                    ef:64:ec:8c:9f:28:eb:b6:a8:77:a3:83:66:e9:3b:
                    0e:49:51:88:57:b7:d1:70:ab:f6:07:e2:6c:39:ae:
                    22:40:5c:b3:f6:51:69:c5:35:0c:ee:b7:84:53:88:
                    4c:51:15:ff:27:ba:1c:f9:94:fc:69:26:f6:2d:11:
                    8d:2b:b8:4e:c2:0c:48:c0:9e:df:7b:d6:8d:96:d4:
                    8e:11:81:59:92:bf:25:99:65:9d:93:40:c4:4c:bf:
                    a6:47:49
                Exponent: 65537 (0x10001)
        X509v3 extensions:
            X509v3 Basic Constraints: 
                CA:FALSE
            Netscape Comment: 
                OpenSSL Generated Certificate
            X509v3 Subject Key Identifier: 
                69:28:C3:5F:35:41:5E:75:AD:DF:FF:C8:7E:44:F3:27:5F:7B:35:E9
            X509v3 Authority Key Identifier: 
                keyid:D2:BA:ED:61:FA:3D:50:02:C6:CC:55:33:97:27:79:C9:C8:26:E4:4E

            X509v3 Extended Key Usage: critical
                Time Stamping
    Signature Algorithm: sha256WithRSAEncryption
         72:a9:d8:f0:3c:ee:03:e2:6a:e4:f7:d0:ce:bd:8e:ca:84:75:
         e8:19:e9:ca:db:84:d3:60:72:e1:bf:ea:25:a5:6a:de:a2:8e:
         8a:3b:6d:95:4a:99:68:36:df:60:8c:e5:5f:c2:79:36:a9:e4:
         9b:86:91:ab:2a:2c:c9:ab:7c:d7:df:0e:96:c2:cf:61:4c:78:
         a3:44:6a:d3:e1:a4:ae:06:d2:62:b2:82:f0:6c:7d:fa:15:d2:
         9c:9c:03:f6:a8:d9:a9:3b:c9:de:51:f9:e4:de:52:98:6b:b7:
         e3:2e:70:66:0e:78:30:44:7f:d6:09:64:ae:55:80:0b:2b:c9:
         ba:2a:bf:9a:1f:53:00:38:2d:33:1c:83:a7:5f:c7:29:52:33:
         c3:ca:55:59:81:77:e8:82:d3:fa:f2:c8:38:3a:99:83:94:0c:
         d8:18:07:ca:2b:41:19:22:01:b5:5e:f6:4a:c8:11:52:45:58:
         e3:cd:1a:6f:52:2d:6c:35:5b:7b:9a:83:6d:df:65:93:5d:1e:
         d9:b3:2c:d9:53:2d:3f:08:72:4b:68:60:dc:72:68:74:23:f7:
         6d:6b:b0:1b:49:da:67:aa:94:1c:3e:27:f8:0f:98:28:b9:eb:
         fe:20:e0:10:a3:5c:5d:e4:6e:79:8c:53:9c:ce:aa:7c:9b:e0:
         86:59:87:34:eb:ec:45:df:90:2f:3e:df:14:8d:16:2b:7e:f9:
         80:02:1d:da:94:ff:e4:b9:40:20:ff:0c:b8:1e:8c:cc:c5:f8:
         1b:c4:eb:47:c8:02:cc:28:fe:43:7a:87:b0:93:02:3d:0f:ef:
         07:c7:6b:d9:9f:d1:7e:01:0a:f9:0a:1d:fd:7e:b8:9e:f7:6d:
         89:ce:49:aa:fb:01:86:f7:fe:92:41:ac:02:bb:5f:ae:be:27:
         e0:42:04:7f:15:88:00:af:5b:45:b3:9c:7c:ed:ae:e6:0b:71:
         64:fc:8b:4a:ba:60:31:c1:74:f6:5d:a4:fc:69:42:10:34:e6:
         e6:44:7d:bd:1f:16:cb:b2:2f:d8:fd:77:4e:e2:cc:91:4a:58:
         b5:98:5d:f6:ff:98:b7:a0:e6:2c:a4:fa:d8:5e:02:5d:c8:f2:
         bd:1c:4c:1d:81:59:1f:ae:48:25:1f:b1:a1:0f:f6:20:e5:ac:
         99:c2:d7:dd:24:1d:7c:09:ff:8f:a7:d3:5c:1f:94:1d:a0:72:
         3d:bb:bb:34:8a:0b:2f:b4:0c:de:15:8c:51:9b:a5:ac:6b:5b:
         61:44:59:aa:9b:7d:1c:e2:68:ad:79:07:6a:ca:dd:32:52:1b:
         cc:1d:d8:a2:92:e6:49:c6:68:8e:df:5c:7f:26:58:35:22:73:
         71:36:5a:5d:d8:11:b5:c7
-----BEGIN CERTIFICATE-----
MIIGEjCCA/qgAwIBAgIBKTANBgkqhkiG9w0BAQsFADCBiTELMAkGA1UEBhMCRVMx
ETAPBgNVBAgMCFphcmFnb3phMREwDwYDVQQHDAhaYXJhZ296YTEOMAwGA1UECgwF
U2lnbnUxDjAMBgNVBAsMBVNpZ251MRAwDgYDVQQDDAdTaWdudUNBMSIwIAYJKoZI
hvcNAQkBFhNzaWdudS5hcHBAZ21haWwuY29tMB4XDTE4MTIxMDA3NDEyMFoXDTE5
MTIxMDA3NDEyMFoweDELMAkGA1UEBhMCRVMxETAPBgNVBAgMCFphcmFnb3phMQ4w
DAYDVQQKDAVTaWdudTEOMAwGA1UECwwFU2lnbnUxEjAQBgNVBAMMCVNpZ251VGVz
dDEiMCAGCSqGSIb3DQEJARYTdGVzdDBycEVDQGdtYWlsLmNvbTCCAiIwDQYJKoZI
hvcNAQEBBQADggIPADCCAgoCggIBAMypSI4LxJDw3qH7Cq9GhC3ixgtSrrQXMy0X
ACC6lVnGrFe7IpxQsCs0W7YeEK0WLIq1YZHVPoQFKvuKPgWzm3Qs4H1joPt2HJtr
Vn6LhkDFK4SezDlzr5vMmHzOQ2A3q+JxIQOIU1RHP9FwfpO8vuO/6bLhPXqUB8IH
z/atH+dqNu+wySL7Ax8XTjiqRChvUH74fwIJDV9XqqZoSRp9+ZqkiPtIyj+Jb7tq
mYvWLQ6QqH8ty0VqGohxoACiuxyYDgbHKQsoGGTfnUtLjizjINgSdOxVbP4yMwur
oKBBOiqpeHW+zRfHvfmm4j2vKx38iukWgq2bjGRM7Qx9kcFaHqe4aDWiFLSgH5IA
NyZTrxB1snKc4oRSrVXaSrKgd6ArqLkYlaGmnvMQVw9AlvCRww2dKBHApJDHq4mA
1Jg44yheVIVwC3ngIZpu1rge3Jw+fg4Q/136BfdWD1F9FquSYmrlEJ4Zi4FAGges
oscSMsMy5pb5cdIerrWZdv9ChYdKbSrMYNGzhZhhOExCX+8tA0k229wO+Z+KDpiD
EPZsrCUt3PYW72TsjJ8o67aod6ODZuk7DklRiFe30XCr9gfibDmuIkBcs/ZRacU1
DO63hFOITFEV/ye6HPmU/Gkm9i0RjSu4TsIMSMCe33vWjZbUjhGBWZK/JZllnZNA
xEy/pkdJAgMBAAGjgZQwgZEwCQYDVR0TBAIwADAsBglghkgBhvhCAQ0EHxYdT3Bl
blNTTCBHZW5lcmF0ZWQgQ2VydGlmaWNhdGUwHQYDVR0OBBYEFGkow181QV51rd//
yH5E8ydfezXpMB8GA1UdIwQYMBaAFNK67WH6PVACxsxVM5cnecnIJuROMBYGA1Ud
JQEB/wQMMAoGCCsGAQUFBwMIMA0GCSqGSIb3DQEBCwUAA4ICAQByqdjwPO4D4mrk
99DOvY7KhHXoGenK24TTYHLhv+olpWreoo6KO22VSploNt9gjOVfwnk2qeSbhpGr
KizJq3zX3w6Wws9hTHijRGrT4aSuBtJisoLwbH36FdKcnAP2qNmpO8neUfnk3lKY
a7fjLnBmDngwRH/WCWSuVYALK8m6Kr+aH1MAOC0zHIOnX8cpUjPDylVZgXfogtP6
8sg4OpmDlAzYGAfKK0EZIgG1XvZKyBFSRVjjzRpvUi1sNVt7moNt32WTXR7ZsyzZ
Uy0/CHJLaGDccmh0I/dta7AbSdpnqpQcPif4D5gouev+IOAQo1xd5G55jFOczqp8
m+CGWYc06+xF35AvPt8UjRYrfvmAAh3alP/kuUAg/wy4HozMxfgbxOtHyALMKP5D
eoewkwI9D+8Hx2vZn9F+AQr5Ch39frie922Jzkmq+wGG9/6SQawCu1+uvifgQgR/
FYgAr1tFs5x87a7mC3Fk/ItKumAxwXT2XaT8aUIQNObmRH29HxbLsi/Y/XdO4syR
Sli1mF32/5i3oOYspPrYXgJdyPK9HEwdgVkfrkglH7GhD/Yg5ayZwtfdJB18Cf+P
p9NcH5QdoHI9u7s0igsvtAzeFYxRm6Wsa1thRFmqm30c4miteQdqyt0yUhvMHdii
kuZJxmiO31x/Jlg1InNxNlpd2BG1xw==
-----END CERTIFICATE-----
